target datalayout = "e-m:e-p270:32:32-p271:32:32-p272:64:64-i64:64-i128:128-f80:128-n8:16:32:64-S128"
target triple = "x86_64-unknown-linux-gnu"

%"class.proxygen::WorkerThread" = type { ptr, i8, %"class.std::thread", %"class.std::mutex", ptr, %"class.std::unique_ptr" }
%"class.std::thread" = type { %"class.std::thread::id" }
%"class.std::thread::id" = type { i64 }
%"class.std::mutex" = type { %"class.std::__mutex_base" }
%"class.std::__mutex_base" = type { %union.pthread_mutex_t }
%union.pthread_mutex_t = type { %struct.__pthread_mutex_s }
%struct.__pthread_mutex_s = type { i32, i32, i32, i32, i32, i16, i16, %struct.__pthread_internal_list }
%struct.__pthread_internal_list = type { ptr, ptr }
%"class.std::unique_ptr" = type { %"struct.std::__uniq_ptr_data" }
%"struct.std::__uniq_ptr_data" = type { %"class.std::__uniq_ptr_impl" }
%"class.std::__uniq_ptr_impl" = type { %"class.std::tuple" }
%"class.std::tuple" = type { %"struct.std::_Tuple_impl" }
%"struct.std::_Tuple_impl" = type { %"struct.std::_Head_base.1" }
%"struct.std::_Head_base.1" = type { ptr }

@_ZN8proxygen12WorkerThread14currentWorker_E = thread_local global ptr null, align 8

; Function Attrs: mustprogress uwtable
define void @_ZN8proxygen12WorkerThread7cleanupEv(ptr noundef nonnull align 8 dereferenceable(80) %this) unnamed_addr #0 align 2 {
entry:
  %this.addr = alloca ptr, align 8
  store ptr %this, ptr %this.addr, align 8
  %this1 = load ptr, ptr %this.addr, align 8
  %0 = call align 8 ptr @llvm.threadlocal.address.p0(ptr align 8 @_ZN8proxygen12WorkerThread14currentWorker_E)
  store ptr null, ptr %0, align 8
  %eventBaseManager_ = getelementptr inbounds %"class.proxygen::WorkerThread", ptr %this1, i32 0, i32 4
  %1 = load ptr, ptr %eventBaseManager_, align 8
  %tobool = icmp ne ptr %1, null
  br i1 %tobool, label %if.then, label %if.end

if.then:                                          ; preds = %entry
  %eventBaseManager_2 = getelementptr inbounds %"class.proxygen::WorkerThread", ptr %this1, i32 0, i32 4
  %2 = load ptr, ptr %eventBaseManager_2, align 8
  call void @_ZN5folly16EventBaseManager14clearEventBaseEv(ptr noundef nonnull align 8 dereferenceable(112) %2)
  br label %if.end

if.end:                                           ; preds = %if.then, %entry
  ret void
}