; Function Attrs: mustprogress uwtable
define void @_ZN8proxygen12WorkerThread7cleanupEv(ptr nocapture noundef nonnull readonly align 8 dereferenceable(80) %this) unnamed_addr #0 align 2 {
entry:
  %0 = tail call align 8 ptr @llvm.threadlocal.address.p0(ptr align 8 @_ZN8proxygen12WorkerThread14currentWorker_E)
  store ptr null, ptr %0, align 8
  %eventBaseManager_ = getelementptr inbounds i8, ptr %this, i64 64
  %1 = load ptr, ptr %eventBaseManager_, align 8
  %tobool.not = icmp eq ptr %1, null
  br i1 %tobool.not, label %if.end, label %if.then

if.then:                                          ; preds = %entry
  tail call void @_ZN5folly16EventBaseManager14clearEventBaseEv(ptr noundef nonnull align 8 dereferenceable(112) %1)
  br label %if.end

if.end:                                           ; preds = %if.then, %entry
  ret void
}